target datalayout = "e-m:e-p270:32:32-p271:32:32-p272:64:64-i64:64-i128:128-f80:128-n8:16:32:64-S128"
target triple = "x86_64-pc-linux-gnu"

%struct.recent_settings_tag = type { i32, i32, i32, i32, i32, i32, i32, i32, i32, i32, i32, i32, i32, i32, i32, i32, i32, i32, i32, i32, i32, i32, i32, i32, i32, i32, i32, i32, i32, i32, i32, i32, i32, i32, i32, i32, ptr, ptr, ptr, i32, i32, ptr, ptr, ptr, ptr, ptr, ptr, i32, ptr, ptr, ptr }
%class.QModelIndex = type { i32, i32, i64, ptr }
%class.QObject = type { ptr, %class.QScopedPointer }
%class.QScopedPointer = type { ptr }
%class.QPaintDevice.base = type <{ ptr, i16 }>
%class.QList.9 = type { %struct.QArrayDataPointer.12 }
%struct.QArrayDataPointer.12 = type { ptr, ptr, i64 }
%class.PacketList = type { %class.QTreeView, ptr, ptr, ptr, ptr, %class.QMenu, %class.QMenu, %class.QMenu, i32, %class.QByteArray, ptr, i32, i8, i8, %class.QList, i8, %class.QModelIndex, %class.RelatedPacketDelegate, ptr, %class.QList.1, i8, i8, i8, i8, i8, %class.QModelIndex, %class.QList.5, %class.QList.9, i32, i8, ptr }
%class.QTreeView = type { %class.QAbstractItemView }
%class.QAbstractItemView = type { %class.QAbstractScrollArea }
%class.QAbstractScrollArea = type { %class.QFrame }
%class.QFrame = type { %class.QWidget }
%class.QWidget = type { %class.QObject, %class.QPaintDevice.base, ptr }
%class.QMenu = type { %class.QWidget }
%class.QByteArray = type { %struct.QArrayDataPointer }
%struct.QArrayDataPointer = type { ptr, ptr, i64 }
%class.QList = type { %struct.QArrayDataPointer.0 }
%struct.QArrayDataPointer.0 = type { ptr, ptr, i64 }
%class.RelatedPacketDelegate = type <{ %class.QStyledItemDelegate, %class.QHash, ptr, i32, [4 x i8] }>
%class.QStyledItemDelegate = type { %class.QAbstractItemDelegate }
%class.QAbstractItemDelegate = type { %class.QObject }
%class.QHash = type { ptr }
%class.QList.1 = type { %struct.QArrayDataPointer.4 }
%struct.QArrayDataPointer.4 = type { ptr, ptr, i64 }
%class.QList.5 = type { %struct.QArrayDataPointer.8 }
%struct.QArrayDataPointer.8 = type { ptr, ptr, i64 }

@recent = external global %struct.recent_settings_tag, align 8

; Function Attrs: mustprogress uwtable
define void @_ZN10PacketList17scrollViewChangedEb(ptr noundef nonnull align 8 dereferenceable(464) %0, i1 noundef zeroext %1) #0 align 2 {
  %3 = alloca ptr, align 8
  %4 = alloca i8, align 1
  store ptr %0, ptr %3, align 8
  %5 = zext i1 %1 to i8
  store i8 %5, ptr %4, align 1
  %6 = load ptr, ptr %3, align 8
  %7 = getelementptr inbounds %class.PacketList, ptr %6, i32 0, i32 20
  %8 = load i8, ptr %7, align 8
  %9 = trunc i8 %8 to i1
  br i1 %9, label %10, label %20

10:                                               ; preds = %2
  %11 = load i32, ptr getelementptr inbounds (%struct.recent_settings_tag, ptr @recent, i32 0, i32 9), align 4
  %12 = icmp ne i32 %11, 0
  br i1 %12, label %16, label %13

13:                                               ; preds = %10
  %14 = load i8, ptr %4, align 1
  %15 = trunc i8 %14 to i1
  br i1 %15, label %19, label %16

16:                                               ; preds = %13, %10
  %17 = load i8, ptr %4, align 1
  %18 = trunc i8 %17 to i1
  call void @_ZN10PacketList18packetListScrolledEb(ptr noundef nonnull align 8 dereferenceable(464) %6, i1 noundef zeroext %18)
  br label %19

19:                                               ; preds = %16, %13
  br label %20

20:                                               ; preds = %19, %2
  ret void
}

; Function Attrs: mustprogress uwtable
define void @_ZN10PacketList25vScrollBarActionTriggeredEi(ptr noundef nonnull align 8 dereferenceable(464) %0, i32 noundef %1) #0 align 2 {
  %3 = alloca ptr, align 8
  %4 = alloca i32, align 4
  store ptr %0, ptr %3, align 8
  store i32 %1, ptr %4, align 4
  %5 = load ptr, ptr %3, align 8
  %6 = getelementptr inbounds %class.PacketList, ptr %5, i32 0, i32 10
  %7 = load ptr, ptr %6, align 8
  %8 = load ptr, ptr %7, align 8
  %9 = getelementptr inbounds ptr, ptr %8, i64 54
  %10 = load ptr, ptr %9, align 8
  %11 = call noundef i32 %10(ptr noundef nonnull align 8 dereferenceable(196) %7)
  %12 = getelementptr inbounds %class.PacketList, ptr %5, i32 0, i32 10
  %13 = load ptr, ptr %12, align 8
  %14 = call noundef i32 @_ZNK15QAbstractSlider7maximumEv(ptr noundef nonnull align 8 dereferenceable(40) %13)
  %15 = icmp sge i32 %11, %14
  %16 = getelementptr inbounds %class.PacketList, ptr %5, i32 0, i32 21
  %17 = zext i1 %15 to i8
  store i8 %17, ptr %16, align 1
  %18 = getelementptr inbounds %class.PacketList, ptr %5, i32 0, i32 21
  %19 = load i8, ptr %18, align 1
  %20 = trunc i8 %19 to i1
  call void @_ZN10PacketList17scrollViewChangedEb(ptr noundef nonnull align 8 dereferenceable(464) %5, i1 noundef zeroext %20)
  ret void
}