; Function Attrs: mustprogress uwtable
define void @_ZN10PacketList25vScrollBarActionTriggeredEi(ptr noundef nonnull align 8 dereferenceable(464) %0, i32 noundef %1) local_unnamed_addr #0 align 2 {
  %3 = getelementptr inbounds i8, ptr %0, i64 224
  %4 = load ptr, ptr %3, align 8
  %5 = load ptr, ptr %4, align 8
  %6 = getelementptr inbounds i8, ptr %5, i64 432
  %7 = load ptr, ptr %6, align 8
  %8 = tail call noundef i32 %7(ptr noundef nonnull align 8 dereferenceable(196) %4)
  %9 = load ptr, ptr %3, align 8
  %10 = tail call noundef i32 @_ZNK15QAbstractSlider7maximumEv(ptr noundef nonnull align 8 dereferenceable(40) %9)
  %11 = icmp sge i32 %8, %10
  %12 = getelementptr inbounds i8, ptr %0, i64 369
  %13 = zext i1 %11 to i8
  store i8 %13, ptr %12, align 1
  %14 = getelementptr inbounds i8, ptr %0, i64 368
  %15 = load i8, ptr %14, align 8
  %16 = and i8 %15, 1
  %.not.i = icmp eq i8 %16, 0
  br i1 %.not.i, label %_ZN10PacketList17scrollViewChangedEb.exit, label %17

17:                                               ; preds = %2
  %18 = load i32, ptr getelementptr inbounds (%struct.recent_settings_tag, ptr @recent, i64 0, i32 9), align 4
  %.not2.i = icmp eq i32 %18, 0
  %brmerge.not.i = and i1 %11, %.not2.i
  br i1 %brmerge.not.i, label %_ZN10PacketList17scrollViewChangedEb.exit, label %19

19:                                               ; preds = %17
  tail call void @_ZN10PacketList18packetListScrolledEb(ptr noundef nonnull align 8 dereferenceable(464) %0, i1 noundef zeroext %11)
  br label %_ZN10PacketList17scrollViewChangedEb.exit

_ZN10PacketList17scrollViewChangedEb.exit:        ; preds = %2, %17, %19
  ret void
}